(dp0
Vengine
p1
Vpdflatex
p2
sVpackages
p3
c__builtin__
set
p4
((lp5
Vgeometry
p6
aVamsmath
p7
aVgraphicx
p8
aVfontenc
p9
aVparskip
p10
atp11
Rp12
sVfiles_with_guttermarks
p13
g4
((lp14
S'depth-study.tex'
p15
aV/Users/Adrian/git/depthstudy/depth-study.tex
p16
aV/Users/Adrian/git/depthstudy/./depth-study.tex
p17
atp18
Rp19
sVsynctex
p20
I01
s.