(dp0
Vengine
p1
Vpdflatex
p2
sVpackages
p3
c__builtin__
set
p4
((lp5
Vgeometry
p6
aVfloat
p7
aVamsmath
p8
aVfontenc
p9
aVgraphicx
p10
aVparskip
p11
atp12
Rp13
sVfiles_with_guttermarks
p14
g4
((lp15
S'depth-study.tex'
p16
aV/Users/Adrian/git/depthstudy/depth-study.tex
p17
aV/Users/Adrian/git/depthstudy/./depth-study.tex
p18
atp19
Rp20
sVsynctex
p21
I01
s.